target datalayout = "e-m:e-p270:32:32-p271:32:32-p272:64:64-i64:64-i128:128-f80:128-n8:16:32:64-S128"
target triple = "x86_64-pc-linux-gnu"

%struct.mi_page_s = type { i32, i32, i8, i16, i16, %union.mi_page_flags_s, i8, ptr, i32, i32, ptr, i64, i64, ptr, ptr, [1 x i64] }
%union.mi_page_flags_s = type { i8 }
%struct.mi_segment_s = type { i64, i8, i8, i8, i8, i64, %struct.mi_commit_mask_s, %struct.mi_commit_mask_s, ptr, ptr, i64, i64, i64, i64, i64, i64, i32, i64, i64, [1024 x %struct.mi_page_s] }
%struct.mi_commit_mask_s = type { [16 x i64] }

; Function Attrs: inlinehint nounwind uwtable
define internal ptr @mi_slice_to_page(ptr noundef %0) #1 {
  %2 = alloca ptr, align 8
  store ptr %0, ptr %2, align 8, !tbaa !12
  %3 = load ptr, ptr %2, align 8, !tbaa !12
  ret ptr %3
}

; Function Attrs: inlinehint nounwind uwtable
define internal ptr @mi_slice_first(ptr noundef %0) #1 {
  %2 = alloca ptr, align 8
  %3 = alloca ptr, align 8
  store ptr %0, ptr %2, align 8, !tbaa !12
  call void @llvm.lifetime.start.p0(i64 8, ptr %3) #10
  %4 = load ptr, ptr %2, align 8, !tbaa !12
  %5 = load ptr, ptr %2, align 8, !tbaa !12
  %6 = getelementptr inbounds nuw %struct.mi_page_s, ptr %5, i32 0, i32 1
  %7 = load i32, ptr %6, align 4, !tbaa !26
  %8 = zext i32 %7 to i64
  %9 = sub i64 0, %8
  %10 = getelementptr inbounds i8, ptr %4, i64 %9
  store ptr %10, ptr %3, align 8, !tbaa !12
  %11 = load ptr, ptr %3, align 8, !tbaa !12
  call void @llvm.lifetime.end.p0(i64 8, ptr %3) #10
  ret ptr %11
}

; Function Attrs: inlinehint nounwind uwtable
define internal ptr @_mi_segment_page_of(ptr noundef %0, ptr noundef %1) #1 {
  %3 = alloca ptr, align 8
  %4 = alloca ptr, align 8
  %5 = alloca i64, align 8
  %6 = alloca i64, align 8
  %7 = alloca ptr, align 8
  %8 = alloca ptr, align 8
  store ptr %0, ptr %3, align 8, !tbaa !24
  store ptr %1, ptr %4, align 8, !tbaa !21
  call void @llvm.lifetime.start.p0(i64 8, ptr %5) #10
  %9 = load ptr, ptr %4, align 8, !tbaa !21
  %10 = load ptr, ptr %3, align 8, !tbaa !24
  %11 = ptrtoint ptr %9 to i64
  %12 = ptrtoint ptr %10 to i64
  %13 = sub i64 %11, %12
  store i64 %13, ptr %5, align 8, !tbaa !8
  call void @llvm.lifetime.start.p0(i64 8, ptr %6) #10
  %14 = load i64, ptr %5, align 8, !tbaa !8
  %15 = lshr i64 %14, 16
  store i64 %15, ptr %6, align 8, !tbaa !8
  call void @llvm.lifetime.start.p0(i64 8, ptr %7) #10
  %16 = load ptr, ptr %3, align 8, !tbaa !24
  %17 = getelementptr inbounds nuw %struct.mi_segment_s, ptr %16, i32 0, i32 19
  %18 = load i64, ptr %6, align 8, !tbaa !8
  %19 = getelementptr inbounds nuw [1024 x %struct.mi_page_s], ptr %17, i64 0, i64 %18
  store ptr %19, ptr %7, align 8, !tbaa !12
  call void @llvm.lifetime.start.p0(i64 8, ptr %8) #10
  %20 = load ptr, ptr %7, align 8, !tbaa !12
  %21 = call ptr @mi_slice_first(ptr noundef %20)
  store ptr %21, ptr %8, align 8, !tbaa !12
  %22 = load ptr, ptr %8, align 8, !tbaa !12
  %23 = call ptr @mi_slice_to_page(ptr noundef %22)
  call void @llvm.lifetime.end.p0(i64 8, ptr %8) #10
  call void @llvm.lifetime.end.p0(i64 8, ptr %7) #10
  call void @llvm.lifetime.end.p0(i64 8, ptr %6) #10
  call void @llvm.lifetime.end.p0(i64 8, ptr %5) #10
  ret ptr %23
}

; Function Attrs: inlinehint nounwind uwtable
define internal ptr @_mi_ptr_segment(ptr noundef %0) #1 {
  %2 = alloca ptr, align 8
  store ptr %0, ptr %2, align 8, !tbaa !21
  %3 = load ptr, ptr %2, align 8, !tbaa !21
  %4 = ptrtoint ptr %3 to i64
  %5 = and i64 %4, -67108864
  %6 = inttoptr i64 %5 to ptr
  ret ptr %6
}

; Function Attrs: inlinehint nounwind uwtable
define internal void @mi_page_set_has_aligned(ptr noundef %0, i1 noundef zeroext %1) #1 {
  %3 = alloca ptr, align 8
  %4 = alloca i8, align 1
  store ptr %0, ptr %3, align 8, !tbaa !12
  %5 = zext i1 %1 to i8
  store i8 %5, ptr %4, align 1, !tbaa !10
  %6 = load i8, ptr %4, align 1, !tbaa !10, !range !19, !noundef !20
  %7 = trunc i8 %6 to i1
  %8 = zext i1 %7 to i8
  %9 = load ptr, ptr %3, align 8, !tbaa !12
  %10 = getelementptr inbounds nuw %struct.mi_page_s, ptr %9, i32 0, i32 5
  %11 = load i8, ptr %10, align 2
  %12 = and i8 %8, 1
  %13 = shl i8 %12, 1
  %14 = and i8 %11, -3
  %15 = or i8 %14, %13
  store i8 %15, ptr %10, align 2
  ret void
}

; Function Attrs: inlinehint nounwind uwtable
define internal ptr @_mi_ptr_page(ptr noundef %0) #1 {
  %2 = alloca ptr, align 8
  store ptr %0, ptr %2, align 8, !tbaa !21
  %3 = load ptr, ptr %2, align 8, !tbaa !21
  %4 = call ptr @_mi_ptr_segment(ptr noundef %3)
  %5 = load ptr, ptr %2, align 8, !tbaa !21
  %6 = call ptr @_mi_segment_page_of(ptr noundef %4, ptr noundef %5)
  ret ptr %6
}

; Function Attrs: noinline nounwind uwtable
define internal ptr @mi_heap_malloc_zero_aligned_at_fallback(ptr noundef %0, i64 noundef %1, i64 noundef %2, i64 noundef %3, i1 noundef zeroext %4) #5 {
  %6 = alloca ptr, align 8
  %7 = alloca ptr, align 8
  %8 = alloca i64, align 8
  %9 = alloca i64, align 8
  %10 = alloca i64, align 8
  %11 = alloca i8, align 1
  %12 = alloca i64, align 8
  %13 = alloca i64, align 8
  %14 = alloca ptr, align 8
  %15 = alloca i32, align 4
  %16 = alloca ptr, align 8
  %17 = alloca i64, align 8
  %18 = alloca ptr, align 8
  store ptr %0, ptr %7, align 8, !tbaa !3
  store i64 %1, ptr %8, align 8, !tbaa !8
  store i64 %2, ptr %9, align 8, !tbaa !8
  store i64 %3, ptr %10, align 8, !tbaa !8
  %19 = zext i1 %4 to i8
  store i8 %19, ptr %11, align 1, !tbaa !10
  call void @llvm.lifetime.start.p0(i64 8, ptr %12) #10
  %20 = load i64, ptr %9, align 8, !tbaa !8
  %21 = sub i64 %20, 1
  store i64 %21, ptr %12, align 8, !tbaa !8
  call void @llvm.lifetime.start.p0(i64 8, ptr %13) #10
  %22 = load i64, ptr %8, align 8, !tbaa !8
  %23 = add i64 %22, 0
  store i64 %23, ptr %13, align 8, !tbaa !8
  %24 = load i64, ptr %10, align 8, !tbaa !8
  %25 = icmp eq i64 %24, 0
  br i1 %25, label %26, label %45

26:                                               ; preds = %5
  %27 = load i64, ptr %9, align 8, !tbaa !8
  %28 = load i64, ptr %13, align 8, !tbaa !8
  %29 = icmp ule i64 %27, %28
  br i1 %29, label %30, label %45

30:                                               ; preds = %26
  %31 = load i64, ptr %13, align 8, !tbaa !8
  %32 = icmp ule i64 %31, 128
  br i1 %32, label %33, label %45

33:                                               ; preds = %30
  %34 = load i64, ptr %13, align 8, !tbaa !8
  %35 = load i64, ptr %12, align 8, !tbaa !8
  %36 = and i64 %34, %35
  %37 = icmp eq i64 %36, 0
  br i1 %37, label %38, label %45

38:                                               ; preds = %33
  call void @llvm.lifetime.start.p0(i64 8, ptr %14) #10
  %39 = load ptr, ptr %7, align 8, !tbaa !3
  %40 = load i64, ptr %8, align 8, !tbaa !8
  %41 = load i8, ptr %11, align 1, !tbaa !10, !range !19, !noundef !20
  %42 = trunc i8 %41 to i1
  %43 = call ptr @_mi_heap_malloc_zero(ptr noundef %39, i64 noundef %40, i1 noundef zeroext %42)
  store ptr %43, ptr %14, align 8, !tbaa !21
  %44 = load ptr, ptr %14, align 8, !tbaa !21
  store ptr %44, ptr %6, align 8
  store i32 1, ptr %15, align 4
  call void @llvm.lifetime.end.p0(i64 8, ptr %14) #10
  br label %88

45:                                               ; preds = %33, %30, %26, %5
  call void @llvm.lifetime.start.p0(i64 8, ptr %16) #10
  %46 = load ptr, ptr %7, align 8, !tbaa !3
  %47 = load i64, ptr %8, align 8, !tbaa !8
  %48 = load i64, ptr %9, align 8, !tbaa !8
  %49 = add i64 %47, %48
  %50 = sub i64 %49, 1
  %51 = load i8, ptr %11, align 1, !tbaa !10, !range !19, !noundef !20
  %52 = trunc i8 %51 to i1
  %53 = call ptr @_mi_heap_malloc_zero(ptr noundef %46, i64 noundef %50, i1 noundef zeroext %52)
  store ptr %53, ptr %16, align 8, !tbaa !21
  %54 = load ptr, ptr %16, align 8, !tbaa !21
  %55 = icmp eq ptr %54, null
  br i1 %55, label %56, label %57

56:                                               ; preds = %45
  store ptr null, ptr %6, align 8
  store i32 1, ptr %15, align 4
  br label %87

57:                                               ; preds = %45
  call void @llvm.lifetime.start.p0(i64 8, ptr %17) #10
  %58 = load i64, ptr %9, align 8, !tbaa !8
  %59 = load ptr, ptr %16, align 8, !tbaa !21
  %60 = ptrtoint ptr %59 to i64
  %61 = load i64, ptr %10, align 8, !tbaa !8
  %62 = add i64 %60, %61
  %63 = load i64, ptr %12, align 8, !tbaa !8
  %64 = and i64 %62, %63
  %65 = sub i64 %58, %64
  store i64 %65, ptr %17, align 8, !tbaa !8
  call void @llvm.lifetime.start.p0(i64 8, ptr %18) #10
  %66 = load i64, ptr %17, align 8, !tbaa !8
  %67 = load i64, ptr %9, align 8, !tbaa !8
  %68 = icmp eq i64 %66, %67
  br i1 %68, label %69, label %71

69:                                               ; preds = %57
  %70 = load ptr, ptr %16, align 8, !tbaa !21
  br label %77

71:                                               ; preds = %57
  %72 = load ptr, ptr %16, align 8, !tbaa !21
  %73 = ptrtoint ptr %72 to i64
  %74 = load i64, ptr %17, align 8, !tbaa !8
  %75 = add i64 %73, %74
  %76 = inttoptr i64 %75 to ptr
  br label %77

77:                                               ; preds = %71, %69
  %78 = phi ptr [ %70, %69 ], [ %76, %71 ]
  store ptr %78, ptr %18, align 8, !tbaa !21
  %79 = load ptr, ptr %18, align 8, !tbaa !21
  %80 = load ptr, ptr %16, align 8, !tbaa !21
  %81 = icmp ne ptr %79, %80
  br i1 %81, label %82, label %85

82:                                               ; preds = %77
  %83 = load ptr, ptr %16, align 8, !tbaa !21
  %84 = call ptr @_mi_ptr_page(ptr noundef %83)
  call void @mi_page_set_has_aligned(ptr noundef %84, i1 noundef zeroext true)
  br label %85

85:                                               ; preds = %82, %77
  %86 = load ptr, ptr %18, align 8, !tbaa !21
  store ptr %86, ptr %6, align 8
  store i32 1, ptr %15, align 4
  call void @llvm.lifetime.end.p0(i64 8, ptr %18) #10
  call void @llvm.lifetime.end.p0(i64 8, ptr %17) #10
  br label %87

87:                                               ; preds = %85, %56
  call void @llvm.lifetime.end.p0(i64 8, ptr %16) #10
  br label %88

88:                                               ; preds = %87, %38
  call void @llvm.lifetime.end.p0(i64 8, ptr %13) #10
  call void @llvm.lifetime.end.p0(i64 8, ptr %12) #10
  %89 = load ptr, ptr %6, align 8
  ret ptr %89
}