; Function Attrs: noinline nounwind uwtable
define internal fastcc ptr @mi_heap_malloc_zero_aligned_at_fallback(ptr noundef %0, i64 noundef range(i64 0, -9223372036854775808) %1, i64 noundef range(i64 0, 1048577) %2, i64 noundef %3, i1 noundef zeroext %4) unnamed_addr #2 {
  %6 = add nsw i64 %2, -1
  %7 = icmp eq i64 %3, 0
  br i1 %7, label %8, label %15

8:                                                ; preds = %5
  %9 = icmp samesign ule i64 %2, %1
  %10 = icmp samesign ult i64 %1, 129
  %or.cond = select i1 %9, i1 %10, i1 false
  %11 = and i64 %6, %1
  %12 = icmp eq i64 %11, 0
  %or.cond34 = select i1 %or.cond, i1 %12, i1 false
  br i1 %or.cond34, label %13, label %15

13:                                               ; preds = %8
  %14 = tail call ptr @_mi_heap_malloc_zero(ptr noundef %0, i64 noundef %1, i1 noundef zeroext %4) #8
  br label %43

15:                                               ; preds = %8, %5
  %16 = add i64 %6, %1
  %17 = tail call ptr @_mi_heap_malloc_zero(ptr noundef %0, i64 noundef %16, i1 noundef zeroext %4) #8
  %18 = icmp eq ptr %17, null
  br i1 %18, label %43, label %19

19:                                               ; preds = %15
  %20 = ptrtoint ptr %17 to i64
  %21 = add i64 %3, %20
  %22 = and i64 %21, %6
  %23 = icmp eq i64 %22, 0
  %24 = add i64 %2, %20
  %25 = sub i64 %24, %22
  %26 = inttoptr i64 %25 to ptr
  %27 = select i1 %23, ptr %17, ptr %26
  %.not = icmp eq ptr %27, %17
  br i1 %.not, label %43, label %28

28:                                               ; preds = %19
  %29 = and i64 %20, -67108864
  %30 = inttoptr i64 %29 to ptr
  %31 = lshr i64 %20, 16
  %32 = and i64 %31, 1023
  %33 = getelementptr inbounds nuw i8, ptr %30, i64 368
  %34 = getelementptr inbounds nuw [1024 x %struct.mi_page_s], ptr %33, i64 0, i64 %32
  %35 = getelementptr inbounds nuw i8, ptr %34, i64 4
  %36 = load i32, ptr %35, align 4, !tbaa !19
  %37 = zext i32 %36 to i64
  %38 = sub nsw i64 0, %37
  %39 = getelementptr inbounds i8, ptr %34, i64 %38
  %40 = getelementptr inbounds nuw i8, ptr %39, i64 14
  %41 = load i8, ptr %40, align 2
  %42 = or i8 %41, 2
  store i8 %42, ptr %40, align 2
  br label %43

43:                                               ; preds = %15, %28, %19, %13
  %.0 = phi ptr [ %14, %13 ], [ null, %15 ], [ %27, %28 ], [ %27, %19 ]
  ret ptr %.0
}